target datalayout = "e-m:e-p270:32:32-p271:32:32-p272:64:64-i64:64-i128:128-f80:128-n8:16:32:64-S128"
target triple = "x86_64-pc-linux-gnu"

%struct.saucy = type { i32, ptr, ptr, ptr, ptr, %struct.coloring, %struct.coloring, ptr, ptr, ptr, ptr, ptr, i32, i32, ptr, i32, ptr, ptr, ptr, ptr, ptr, ptr, ptr, i32, i32, ptr, i32, ptr, i32, i32, ptr, ptr, ptr, ptr, ptr, ptr, ptr, ptr, ptr, ptr, i32, ptr, ptr, ptr, i32, ptr, i32, ptr, ptr, ptr, ptr, i32, ptr, ptr, i32, ptr, ptr, ptr, ptr, ptr, ptr, ptr, ptr, ptr, ptr, ptr, ptr, ptr, ptr, ptr, ptr, ptr, ptr, ptr, ptr, ptr, ptr, double, i32, i32, i32, ptr, ptr, ptr, ptr }
%struct.coloring = type { ptr, ptr, ptr, ptr }

; Function Attrs: nounwind uwtable
define internal i32 @split_init(ptr noundef %0, ptr noundef %1, i32 noundef %2, i32 noundef %3) #0 {
  %5 = alloca ptr, align 8
  %6 = alloca ptr, align 8
  %7 = alloca i32, align 4
  %8 = alloca i32, align 4
  store ptr %0, ptr %5, align 8
  store ptr %1, ptr %6, align 8
  store i32 %2, ptr %7, align 4
  store i32 %3, ptr %8, align 4
  %9 = load ptr, ptr %5, align 8
  %10 = load ptr, ptr %6, align 8
  %11 = load i32, ptr %7, align 4
  %12 = load i32, ptr %8, align 4
  %13 = call i32 @split_left(ptr noundef %9, ptr noundef %10, i32 noundef %11, i32 noundef %12)
  %14 = load ptr, ptr %6, align 8
  %15 = getelementptr inbounds %struct.coloring, ptr %14, i32 0, i32 3
  %16 = load ptr, ptr %15, align 8
  %17 = load i32, ptr %8, align 4
  %18 = sext i32 %17 to i64
  %19 = getelementptr inbounds i32, ptr %16, i64 %18
  %20 = load i32, ptr %19, align 4
  %21 = icmp ne i32 %20, 0
  br i1 %21, label %22, label %63

22:                                               ; preds = %4
  %23 = load i32, ptr %8, align 4
  %24 = load ptr, ptr %5, align 8
  %25 = getelementptr inbounds %struct.saucy, ptr %24, i32 0, i32 8
  %26 = load ptr, ptr %25, align 8
  %27 = load ptr, ptr %5, align 8
  %28 = getelementptr inbounds %struct.saucy, ptr %27, i32 0, i32 7
  %29 = load ptr, ptr %28, align 8
  %30 = load i32, ptr %7, align 4
  %31 = sext i32 %30 to i64
  %32 = getelementptr inbounds i32, ptr %29, i64 %31
  %33 = load i32, ptr %32, align 4
  %34 = sext i32 %33 to i64
  %35 = getelementptr inbounds i32, ptr %26, i64 %34
  store i32 %23, ptr %35, align 4
  %36 = load ptr, ptr %5, align 8
  %37 = getelementptr inbounds %struct.saucy, ptr %36, i32 0, i32 7
  %38 = load ptr, ptr %37, align 8
  %39 = load i32, ptr %7, align 4
  %40 = sext i32 %39 to i64
  %41 = getelementptr inbounds i32, ptr %38, i64 %40
  %42 = load i32, ptr %41, align 4
  %43 = load ptr, ptr %5, align 8
  %44 = getelementptr inbounds %struct.saucy, ptr %43, i32 0, i32 7
  %45 = load ptr, ptr %44, align 8
  %46 = load i32, ptr %8, align 4
  %47 = sext i32 %46 to i64
  %48 = getelementptr inbounds i32, ptr %45, i64 %47
  store i32 %42, ptr %48, align 4
  %49 = load i32, ptr %7, align 4
  %50 = load ptr, ptr %5, align 8
  %51 = getelementptr inbounds %struct.saucy, ptr %50, i32 0, i32 8
  %52 = load ptr, ptr %51, align 8
  %53 = load i32, ptr %8, align 4
  %54 = sext i32 %53 to i64
  %55 = getelementptr inbounds i32, ptr %52, i64 %54
  store i32 %49, ptr %55, align 4
  %56 = load i32, ptr %8, align 4
  %57 = load ptr, ptr %5, align 8
  %58 = getelementptr inbounds %struct.saucy, ptr %57, i32 0, i32 7
  %59 = load ptr, ptr %58, align 8
  %60 = load i32, ptr %7, align 4
  %61 = sext i32 %60 to i64
  %62 = getelementptr inbounds i32, ptr %59, i64 %61
  store i32 %56, ptr %62, align 4
  br label %63

63:                                               ; preds = %22, %4
  %64 = load ptr, ptr %6, align 8
  %65 = getelementptr inbounds %struct.coloring, ptr %64, i32 0, i32 3
  %66 = load ptr, ptr %65, align 8
  %67 = load i32, ptr %7, align 4
  %68 = sext i32 %67 to i64
  %69 = getelementptr inbounds i32, ptr %66, i64 %68
  %70 = load i32, ptr %69, align 4
  %71 = icmp ne i32 %70, 0
  br i1 %71, label %111, label %72

72:                                               ; preds = %63
  %73 = load ptr, ptr %5, align 8
  %74 = getelementptr inbounds %struct.saucy, ptr %73, i32 0, i32 7
  %75 = load ptr, ptr %74, align 8
  %76 = load i32, ptr %7, align 4
  %77 = sext i32 %76 to i64
  %78 = getelementptr inbounds i32, ptr %75, i64 %77
  %79 = load i32, ptr %78, align 4
  %80 = load ptr, ptr %5, align 8
  %81 = getelementptr inbounds %struct.saucy, ptr %80, i32 0, i32 7
  %82 = load ptr, ptr %81, align 8
  %83 = load ptr, ptr %5, align 8
  %84 = getelementptr inbounds %struct.saucy, ptr %83, i32 0, i32 8
  %85 = load ptr, ptr %84, align 8
  %86 = load i32, ptr %7, align 4
  %87 = sext i32 %86 to i64
  %88 = getelementptr inbounds i32, ptr %85, i64 %87
  %89 = load i32, ptr %88, align 4
  %90 = sext i32 %89 to i64
  %91 = getelementptr inbounds i32, ptr %82, i64 %90
  store i32 %79, ptr %91, align 4
  %92 = load ptr, ptr %5, align 8
  %93 = getelementptr inbounds %struct.saucy, ptr %92, i32 0, i32 8
  %94 = load ptr, ptr %93, align 8
  %95 = load i32, ptr %7, align 4
  %96 = sext i32 %95 to i64
  %97 = getelementptr inbounds i32, ptr %94, i64 %96
  %98 = load i32, ptr %97, align 4
  %99 = load ptr, ptr %5, align 8
  %100 = getelementptr inbounds %struct.saucy, ptr %99, i32 0, i32 8
  %101 = load ptr, ptr %100, align 8
  %102 = load ptr, ptr %5, align 8
  %103 = getelementptr inbounds %struct.saucy, ptr %102, i32 0, i32 7
  %104 = load ptr, ptr %103, align 8
  %105 = load i32, ptr %7, align 4
  %106 = sext i32 %105 to i64
  %107 = getelementptr inbounds i32, ptr %104, i64 %106
  %108 = load i32, ptr %107, align 4
  %109 = sext i32 %108 to i64
  %110 = getelementptr inbounds i32, ptr %101, i64 %109
  store i32 %98, ptr %110, align 4
  br label %111

111:                                              ; preds = %72, %63
  ret i32 1
}