; Function Attrs: nofree norecurse nosync nounwind memory(readwrite, inaccessiblemem: none) uwtable
define internal noundef i32 @split_init(ptr noundef captures(none) %0, ptr noundef readonly captures(none) %1, i32 noundef %2, i32 noundef %3) #2 {
  %5 = tail call i32 @split_left(ptr noundef %0, ptr noundef %1, i32 noundef %2, i32 noundef %3)
  %6 = getelementptr inbounds nuw i8, ptr %1, i64 24
  %7 = load ptr, ptr %6, align 8
  %8 = sext i32 %3 to i64
  %9 = getelementptr inbounds i32, ptr %7, i64 %8
  %10 = load i32, ptr %9, align 4
  %.not = icmp eq i32 %10, 0
  br i1 %.not, label %._crit_edge, label %11

._crit_edge:                                      ; preds = %4
  %.pre32 = sext i32 %2 to i64
  br label %29

11:                                               ; preds = %4
  %12 = getelementptr inbounds nuw i8, ptr %0, i64 112
  %13 = load ptr, ptr %12, align 8
  %14 = getelementptr inbounds nuw i8, ptr %0, i64 104
  %15 = load ptr, ptr %14, align 8
  %16 = sext i32 %2 to i64
  %17 = getelementptr inbounds i32, ptr %15, i64 %16
  %18 = load i32, ptr %17, align 4
  %19 = sext i32 %18 to i64
  %20 = getelementptr inbounds i32, ptr %13, i64 %19
  store i32 %3, ptr %20, align 4
  %21 = load ptr, ptr %14, align 8
  %22 = getelementptr inbounds i32, ptr %21, i64 %16
  %23 = load i32, ptr %22, align 4
  %24 = getelementptr inbounds i32, ptr %21, i64 %8
  store i32 %23, ptr %24, align 4
  %25 = load ptr, ptr %12, align 8
  %26 = getelementptr inbounds i32, ptr %25, i64 %8
  store i32 %2, ptr %26, align 4
  %27 = load ptr, ptr %14, align 8
  %28 = getelementptr inbounds i32, ptr %27, i64 %16
  store i32 %3, ptr %28, align 4
  %.pre = load ptr, ptr %6, align 8
  br label %29

29:                                               ; preds = %._crit_edge, %11
  %.pre-phi = phi i64 [ %.pre32, %._crit_edge ], [ %16, %11 ]
  %30 = phi ptr [ %7, %._crit_edge ], [ %.pre, %11 ]
  %31 = getelementptr inbounds i32, ptr %30, i64 %.pre-phi
  %32 = load i32, ptr %31, align 4
  %.not31 = icmp eq i32 %32, 0
  br i1 %.not31, label %33, label %52

33:                                               ; preds = %29
  %34 = getelementptr inbounds nuw i8, ptr %0, i64 104
  %35 = load ptr, ptr %34, align 8
  %36 = getelementptr inbounds i32, ptr %35, i64 %.pre-phi
  %37 = load i32, ptr %36, align 4
  %38 = getelementptr inbounds nuw i8, ptr %0, i64 112
  %39 = load ptr, ptr %38, align 8
  %40 = getelementptr inbounds i32, ptr %39, i64 %.pre-phi
  %41 = load i32, ptr %40, align 4
  %42 = sext i32 %41 to i64
  %43 = getelementptr inbounds i32, ptr %35, i64 %42
  store i32 %37, ptr %43, align 4
  %44 = load ptr, ptr %38, align 8
  %45 = getelementptr inbounds i32, ptr %44, i64 %.pre-phi
  %46 = load i32, ptr %45, align 4
  %47 = load ptr, ptr %34, align 8
  %48 = getelementptr inbounds i32, ptr %47, i64 %.pre-phi
  %49 = load i32, ptr %48, align 4
  %50 = sext i32 %49 to i64
  %51 = getelementptr inbounds i32, ptr %44, i64 %50
  store i32 %46, ptr %51, align 4
  br label %52

52:                                               ; preds = %33, %29
  ret i32 1
}